; Function Attrs: nounwind uwtable
define ptr @l_Lean_Elab_Tactic_NormCast_normCastHyp(ptr noundef %0, ptr noundef %1, ptr noundef %2, ptr noundef %3, ptr noundef %4, ptr noundef %5, ptr noundef %6, ptr noundef %7, ptr noundef %8, ptr noundef %9, ptr noundef %10) local_unnamed_addr #0 {
  tail call void @lean_inc_heartbeat() #5
  %12 = tail call noalias ptr @mi_malloc_small(i64 noundef 40) #5
  %13 = icmp eq ptr %12, null
  br i1 %13, label %14, label %lean_alloc_closure.exit

14:                                               ; preds = %11
  tail call void @lean_internal_panic_out_of_memory() #6
  unreachable

lean_alloc_closure.exit:                          ; preds = %11
  %15 = getelementptr inbounds nuw i8, ptr %12, i64 4
  store i32 1, ptr %12, align 4, !tbaa !8
  store i32 -184549336, ptr %15, align 4
  %16 = getelementptr inbounds nuw i8, ptr %12, i64 8
  store ptr @l_Lean_Elab_Tactic_NormCast_normCastHyp___lambda__1___boxed, ptr %16, align 8, !tbaa !4
  %17 = getelementptr inbounds nuw i8, ptr %12, i64 16
  store i16 11, ptr %17, align 8, !tbaa !18
  %18 = getelementptr inbounds nuw i8, ptr %12, i64 18
  store i16 2, ptr %18, align 2, !tbaa !18
  %19 = getelementptr inbounds nuw i8, ptr %12, i64 24
  store ptr %1, ptr %19, align 8, !tbaa !4
  %20 = getelementptr inbounds nuw i8, ptr %12, i64 32
  store ptr %0, ptr %20, align 8, !tbaa !4
  %21 = tail call ptr @l_Lean_Elab_Tactic_withMainContext___rarg(ptr noundef nonnull %12, ptr noundef %2, ptr noundef %3, ptr noundef %4, ptr noundef %5, ptr noundef %6, ptr noundef %7, ptr noundef %8, ptr noundef %9, ptr noundef %10) #5
  ret ptr %21
}